; Function Attrs: mustprogress nofree norecurse nosync nounwind willreturn memory(argmem: write) uwtable
define internal noundef zeroext i1 @_ZNSt17_Function_handlerIFN3nix3refINS0_7CommandEEEvEZNS0_L16registerCommand2I12CmdDumpPath2EENS0_15RegisterCommandEOSt6vectorINSt7__cxx1112basic_stringIcSt11char_traitsIcESaIcEEESaISE_EEEUlvE_E10_M_managerERSt9_Any_dataRKSK_St18_Manager_operation(ptr nocapture noundef nonnull writeonly align 8 dereferenceable(16) %0, ptr noundef nonnull align 8 dereferenceable(16) %1, i32 noundef %2) #14 align 2 personality ptr @__gxx_personality_v0 {
  switch i32 %2, label %_ZNSt14_Function_base13_Base_managerIZN3nixL16registerCommand2I12CmdDumpPath2EENS1_15RegisterCommandEOSt6vectorINSt7__cxx1112basic_stringIcSt11char_traitsIcESaIcEEESaISB_EEEUlvE_E10_M_managerERSt9_Any_dataRKSH_St18_Manager_operation.exit [
    i32 0, label %_ZNSt14_Function_base13_Base_managerIZN3nixL16registerCommand2I12CmdDumpPath2EENS1_15RegisterCommandEOSt6vectorINSt7__cxx1112basic_stringIcSt11char_traitsIcESaIcEEESaISB_EEEUlvE_E10_M_managerERSt9_Any_dataRKSH_St18_Manager_operation.exit.sink.split
    i32 1, label %4
  ]

4:                                                ; preds = %3
  br label %_ZNSt14_Function_base13_Base_managerIZN3nixL16registerCommand2I12CmdDumpPath2EENS1_15RegisterCommandEOSt6vectorINSt7__cxx1112basic_stringIcSt11char_traitsIcESaIcEEESaISB_EEEUlvE_E10_M_managerERSt9_Any_dataRKSH_St18_Manager_operation.exit.sink.split

_ZNSt14_Function_base13_Base_managerIZN3nixL16registerCommand2I12CmdDumpPath2EENS1_15RegisterCommandEOSt6vectorINSt7__cxx1112basic_stringIcSt11char_traitsIcESaIcEEESaISB_EEEUlvE_E10_M_managerERSt9_Any_dataRKSH_St18_Manager_operation.exit.sink.split: ; preds = %3, %4
  %.sink = phi ptr [ %1, %4 ], [ @_ZTIZN3nixL16registerCommand2I12CmdDumpPath2EENS_15RegisterCommandEOSt6vectorINSt7__cxx1112basic_stringIcSt11char_traitsIcESaIcEEESaIS9_EEEUlvE_, %3 ]
  store ptr %.sink, ptr %0, align 8
  br label %_ZNSt14_Function_base13_Base_managerIZN3nixL16registerCommand2I12CmdDumpPath2EENS1_15RegisterCommandEOSt6vectorINSt7__cxx1112basic_stringIcSt11char_traitsIcESaIcEEESaISB_EEEUlvE_E10_M_managerERSt9_Any_dataRKSH_St18_Manager_operation.exit

_ZNSt14_Function_base13_Base_managerIZN3nixL16registerCommand2I12CmdDumpPath2EENS1_15RegisterCommandEOSt6vectorINSt7__cxx1112basic_stringIcSt11char_traitsIcESaIcEEESaISB_EEEUlvE_E10_M_managerERSt9_Any_dataRKSH_St18_Manager_operation.exit: ; preds = %_ZNSt14_Function_base13_Base_managerIZN3nixL16registerCommand2I12CmdDumpPath2EENS1_15RegisterCommandEOSt6vectorINSt7__cxx1112basic_stringIcSt11char_traitsIcESaIcEEESaISB_EEEUlvE_E10_M_managerERSt9_Any_dataRKSH_St18_Manager_operation.exit.sink.split, %3
  ret i1 false
}